target datalayout = "e-m:e-p270:32:32-p271:32:32-p272:64:64-i64:64-i128:128-f80:128-n8:16:32:64-S128"
target triple = "x86_64-pc-linux-gnu"

%struct.FLACStreaminfo = type { i32, i32, i32, i32, i32, i64 }

@.str.23 = private unnamed_addr constant [21 x i8] c"  Max Blocksize: %d\0A\00", align 1
@.str.24 = private unnamed_addr constant [21 x i8] c"  Max Framesize: %d\0A\00", align 1
@.str.25 = private unnamed_addr constant [18 x i8] c"  Samplerate: %d\0A\00", align 1
@.str.26 = private unnamed_addr constant [16 x i8] c"  Channels: %d\0A\00", align 1
@.str.27 = private unnamed_addr constant [12 x i8] c"  Bits: %d\0A\00", align 1

; Function Attrs: nounwind uwtable
define internal void @dump_headers(ptr noundef %0, ptr noundef %1) #1 {
  %3 = alloca ptr, align 8
  %4 = alloca ptr, align 8
  store ptr %0, ptr %3, align 8, !tbaa !4
  store ptr %1, ptr %4, align 8, !tbaa !95
  %5 = load ptr, ptr %3, align 8, !tbaa !4
  %6 = load ptr, ptr %4, align 8, !tbaa !95
  %7 = getelementptr inbounds nuw %struct.FLACStreaminfo, ptr %6, i32 0, i32 3
  %8 = load i32, ptr %7, align 4, !tbaa !97
  call void (ptr, i32, ptr, ...) @av_log(ptr noundef %5, i32 noundef 48, ptr noundef @.str.23, i32 noundef %8)
  %9 = load ptr, ptr %3, align 8, !tbaa !4
  %10 = load ptr, ptr %4, align 8, !tbaa !95
  %11 = getelementptr inbounds nuw %struct.FLACStreaminfo, ptr %10, i32 0, i32 4
  %12 = load i32, ptr %11, align 8, !tbaa !98
  call void (ptr, i32, ptr, ...) @av_log(ptr noundef %9, i32 noundef 48, ptr noundef @.str.24, i32 noundef %12)
  %13 = load ptr, ptr %3, align 8, !tbaa !4
  %14 = load ptr, ptr %4, align 8, !tbaa !95
  %15 = getelementptr inbounds nuw %struct.FLACStreaminfo, ptr %14, i32 0, i32 0
  %16 = load i32, ptr %15, align 8, !tbaa !99
  call void (ptr, i32, ptr, ...) @av_log(ptr noundef %13, i32 noundef 48, ptr noundef @.str.25, i32 noundef %16)
  %17 = load ptr, ptr %3, align 8, !tbaa !4
  %18 = load ptr, ptr %4, align 8, !tbaa !95
  %19 = getelementptr inbounds nuw %struct.FLACStreaminfo, ptr %18, i32 0, i32 1
  %20 = load i32, ptr %19, align 4, !tbaa !100
  call void (ptr, i32, ptr, ...) @av_log(ptr noundef %17, i32 noundef 48, ptr noundef @.str.26, i32 noundef %20)
  %21 = load ptr, ptr %3, align 8, !tbaa !4
  %22 = load ptr, ptr %4, align 8, !tbaa !95
  %23 = getelementptr inbounds nuw %struct.FLACStreaminfo, ptr %22, i32 0, i32 2
  %24 = load i32, ptr %23, align 8, !tbaa !101
  call void (ptr, i32, ptr, ...) @av_log(ptr noundef %21, i32 noundef 48, ptr noundef @.str.27, i32 noundef %24)
  ret void
}